; ModuleID = '7/768.c'
source_filename = "7/768.c"
target datalayout = "e-m:e-p270:32:32-p271:32:32-p272:64:64-i64:64-f80:128-n8:16:32:64-S128"
target triple = "x86_64-pc-linux-gnu"

@.str = private unnamed_addr constant [3 x i8] c"%s\00", align 1

; Function Attrs: noinline nounwind uwtable
define dso_local i32 @main() #0 {
  %1 = alloca i32, align 4
  %2 = alloca [256 x i8], align 16
  %3 = alloca [256 x i8], align 16
  %4 = alloca [256 x i8], align 16
  %5 = alloca [20 x i8], align 16
  %6 = alloca [20 x i8], align 16
  %7 = alloca i32, align 4
  %8 = alloca i32, align 4
  %9 = alloca i32, align 4
  %10 = alloca i32, align 4
  %11 = alloca i32, align 4
  %12 = alloca i32, align 4
  %13 = alloca i32, align 4
  store i32 0, i32* %1, align 4
  store i32 0, i32* %9, align 4
  %14 = getelementptr inbounds [256 x i8], [256 x i8]* %2, i64 0, i64 0
  %15 = call i32 (i8*, ...) bitcast (i32 (...)* @gets to i32 (i8*, ...)*)(i8* %14)
  %16 = getelementptr inbounds [256 x i8], [256 x i8]* %2, i64 0, i64 0
  %17 = call i64 @strlen(i8* %16) #4
  %18 = trunc i64 %17 to i32
  store i32 %18, i32* %7, align 4
  %19 = getelementptr inbounds [20 x i8], [20 x i8]* %6, i64 0, i64 0
  %20 = call i32 (i8*, ...) bitcast (i32 (...)* @gets to i32 (i8*, ...)*)(i8* %19)
  %21 = getelementptr inbounds [20 x i8], [20 x i8]* %5, i64 0, i64 0
  %22 = call i32 (i8*, ...) bitcast (i32 (...)* @gets to i32 (i8*, ...)*)(i8* %21)
  %23 = getelementptr inbounds [20 x i8], [20 x i8]* %6, i64 0, i64 0
  %24 = call i64 @strlen(i8* %23) #4
  %25 = trunc i64 %24 to i32
  store i32 %25, i32* %10, align 4
  store i32 0, i32* %8, align 4
  br label %26

26:                                               ; preds = %140, %0
  %27 = load i32, i32* %8, align 4
  %28 = load i32, i32* %7, align 4
  %29 = icmp slt i32 %27, %28
  br i1 %29, label %30, label %143

30:                                               ; preds = %26
  %31 = load i32, i32* %8, align 4
  %32 = sext i32 %31 to i64
  %33 = getelementptr inbounds [256 x i8], [256 x i8]* %2, i64 0, i64 %32
  %34 = load i8, i8* %33, align 1
  %35 = sext i8 %34 to i32
  %36 = getelementptr inbounds [20 x i8], [20 x i8]* %6, i64 0, i64 0
  %37 = load i8, i8* %36, align 16
  %38 = sext i8 %37 to i32
  %39 = icmp eq i32 %35, %38
  br i1 %39, label %40, label %139

40:                                               ; preds = %30
  store i32 1, i32* %11, align 4
  store i32 1, i32* %12, align 4
  br label %41

41:                                               ; preds = %61, %40
  %42 = load i32, i32* %12, align 4
  %43 = load i32, i32* %10, align 4
  %44 = icmp slt i32 %42, %43
  br i1 %44, label %45, label %64

45:                                               ; preds = %41
  %46 = load i32, i32* %8, align 4
  %47 = load i32, i32* %12, align 4
  %48 = add nsw i32 %46, %47
  %49 = sext i32 %48 to i64
  %50 = getelementptr inbounds [256 x i8], [256 x i8]* %2, i64 0, i64 %49
  %51 = load i8, i8* %50, align 1
  %52 = sext i8 %51 to i32
  %53 = load i32, i32* %12, align 4
  %54 = sext i32 %53 to i64
  %55 = getelementptr inbounds [20 x i8], [20 x i8]* %6, i64 0, i64 %54
  %56 = load i8, i8* %55, align 1
  %57 = sext i8 %56 to i32
  %58 = icmp ne i32 %52, %57
  br i1 %58, label %59, label %60

59:                                               ; preds = %45
  store i32 0, i32* %11, align 4
  br label %64

60:                                               ; preds = %45
  br label %61

61:                                               ; preds = %60
  %62 = load i32, i32* %12, align 4
  %63 = add nsw i32 %62, 1
  store i32 %63, i32* %12, align 4
  br label %41

64:                                               ; preds = %59, %41
  %65 = load i32, i32* %11, align 4
  %66 = icmp eq i32 %65, 1
  br i1 %66, label %67, label %138

67:                                               ; preds = %64
  store i32 0, i32* %13, align 4
  br label %68

68:                                               ; preds = %84, %67
  %69 = load i32, i32* %13, align 4
  %70 = load i32, i32* %8, align 4
  %71 = icmp slt i32 %69, %70
  br i1 %71, label %72, label %87

72:                                               ; preds = %68
  %73 = load i32, i32* %13, align 4
  %74 = sext i32 %73 to i64
  %75 = getelementptr inbounds [256 x i8], [256 x i8]* %2, i64 0, i64 %74
  %76 = load i8, i8* %75, align 1
  %77 = load i32, i32* %13, align 4
  %78 = sext i32 %77 to i64
  %79 = getelementptr inbounds [256 x i8], [256 x i8]* %3, i64 0, i64 %78
  store i8 %76, i8* %79, align 1
  %80 = load i32, i32* %13, align 4
  %81 = add nsw i32 %80, 1
  %82 = sext i32 %81 to i64
  %83 = getelementptr inbounds [256 x i8], [256 x i8]* %3, i64 0, i64 %82
  store i8 0, i8* %83, align 1
  br label %84

84:                                               ; preds = %72
  %85 = load i32, i32* %13, align 4
  %86 = add nsw i32 %85, 1
  store i32 %86, i32* %13, align 4
  br label %68

87:                                               ; preds = %68
  %88 = getelementptr inbounds [256 x i8], [256 x i8]* %4, i64 0, i64 0
  store i8 -1, i8* %88, align 16
  %89 = load i32, i32* %8, align 4
  %90 = load i32, i32* %10, align 4
  %91 = add nsw i32 %89, %90
  store i32 %91, i32* %13, align 4
  br label %92

92:                                               ; preds = %116, %87
  %93 = load i32, i32* %13, align 4
  %94 = load i32, i32* %7, align 4
  %95 = icmp slt i32 %93, %94
  br i1 %95, label %96, label %119

96:                                               ; preds = %92
  %97 = load i32, i32* %13, align 4
  %98 = sext i32 %97 to i64
  %99 = getelementptr inbounds [256 x i8], [256 x i8]* %2, i64 0, i64 %98
  %100 = load i8, i8* %99, align 1
  %101 = load i32, i32* %13, align 4
  %102 = load i32, i32* %8, align 4
  %103 = sub nsw i32 %101, %102
  %104 = load i32, i32* %10, align 4
  %105 = sub nsw i32 %103, %104
  %106 = sext i32 %105 to i64
  %107 = getelementptr inbounds [256 x i8], [256 x i8]* %4, i64 0, i64 %106
  store i8 %100, i8* %107, align 1
  %108 = load i32, i32* %13, align 4
  %109 = load i32, i32* %8, align 4
  %110 = sub nsw i32 %108, %109
  %111 = load i32, i32* %10, align 4
  %112 = sub nsw i32 %110, %111
  %113 = add nsw i32 %112, 1
  %114 = sext i32 %113 to i64
  %115 = getelementptr inbounds [256 x i8], [256 x i8]* %4, i64 0, i64 %114
  store i8 0, i8* %115, align 1
  br label %116

116:                                              ; preds = %96
  %117 = load i32, i32* %13, align 4
  %118 = add nsw i32 %117, 1
  store i32 %118, i32* %13, align 4
  br label %92

119:                                              ; preds = %92
  %120 = getelementptr inbounds [256 x i8], [256 x i8]* %3, i64 0, i64 0
  %121 = getelementptr inbounds [20 x i8], [20 x i8]* %5, i64 0, i64 0
  %122 = call i8* @strcat(i8* %120, i8* %121) #5
  %123 = getelementptr inbounds [256 x i8], [256 x i8]* %4, i64 0, i64 0
  %124 = load i8, i8* %123, align 16
  %125 = sext i8 %124 to i32
  %126 = icmp ne i32 %125, -1
  br i1 %126, label %127, label %131

127:                                              ; preds = %119
  %128 = getelementptr inbounds [256 x i8], [256 x i8]* %3, i64 0, i64 0
  %129 = getelementptr inbounds [256 x i8], [256 x i8]* %4, i64 0, i64 0
  %130 = call i8* @strcat(i8* %128, i8* %129) #5
  br label %131

131:                                              ; preds = %127, %119
  %132 = getelementptr inbounds [256 x i8], [256 x i8]* %2, i64 0, i64 0
  %133 = getelementptr inbounds [256 x i8], [256 x i8]* %3, i64 0, i64 0
  %134 = call i8* @strcpy(i8* %132, i8* %133) #5
  %135 = getelementptr inbounds [256 x i8], [256 x i8]* %2, i64 0, i64 0
  %136 = call i64 @strlen(i8* %135) #4
  %137 = trunc i64 %136 to i32
  store i32 %137, i32* %7, align 4
  br label %143

138:                                              ; preds = %64
  br label %139

139:                                              ; preds = %138, %30
  br label %140

140:                                              ; preds = %139
  %141 = load i32, i32* %8, align 4
  %142 = add nsw i32 %141, 1
  store i32 %142, i32* %8, align 4
  br label %26

143:                                              ; preds = %131, %26
  %144 = getelementptr inbounds [256 x i8], [256 x i8]* %2, i64 0, i64 0
  %145 = call i32 (i8*, ...) @printf(i8* getelementptr inbounds ([3 x i8], [3 x i8]* @.str, i64 0, i64 0), i8* %144)
  ret i32 0
}

declare dso_local i32 @gets(...) #1

; Function Attrs: nounwind readonly
declare dso_local i64 @strlen(i8*) #2

; Function Attrs: nounwind
declare dso_local i8* @strcat(i8*, i8*) #3

; Function Attrs: nounwind
declare dso_local i8* @strcpy(i8*, i8*) #3

declare dso_local i32 @printf(i8*, ...) #1


!llvm.module.flags = !{!0}
!llvm.ident = !{!1}

!0 = !{i32 1, !"wchar_size", i32 4}
!1 = !{!"clang version 10.0.0-4ubuntu1 "}
